target datalayout = "e-m:e-p270:32:32-p271:32:32-p272:64:64-i64:64-i128:128-f80:128-n8:16:32:64-S128"
target triple = "x86_64-pc-linux-gnu"

%struct.Llb_Mtr_t_ = type { i32, i32, i32, i32, ptr, ptr, ptr, ptr, ptr, ptr, ptr }

; Function Attrs: nounwind uwtable
define ptr @Llb_MtrFindVarOrder(ptr noundef %0) #0 {
  %2 = alloca ptr, align 8
  %3 = alloca ptr, align 8
  %4 = alloca ptr, align 8
  %5 = alloca i32, align 4
  %6 = alloca i32, align 4
  %7 = alloca i32, align 4
  %8 = alloca i32, align 4
  store ptr %0, ptr %2, align 8, !tbaa !3
  call void @llvm.lifetime.start.p0(i64 8, ptr %3) #8
  call void @llvm.lifetime.start.p0(i64 8, ptr %4) #8
  call void @llvm.lifetime.start.p0(i64 4, ptr %5) #8
  call void @llvm.lifetime.start.p0(i64 4, ptr %6) #8
  call void @llvm.lifetime.start.p0(i64 4, ptr %7) #8
  call void @llvm.lifetime.start.p0(i64 4, ptr %8) #8
  %9 = load ptr, ptr %2, align 8, !tbaa !3
  %10 = getelementptr inbounds nuw %struct.Llb_Mtr_t_, ptr %9, i32 0, i32 2
  %11 = load i32, ptr %10, align 8, !tbaa !17
  %12 = sext i32 %11 to i64
  %13 = call noalias ptr @calloc(i64 noundef %12, i64 noundef 4) #9
  store ptr %13, ptr %3, align 8, !tbaa !26
  %14 = load ptr, ptr %2, align 8, !tbaa !3
  %15 = getelementptr inbounds nuw %struct.Llb_Mtr_t_, ptr %14, i32 0, i32 2
  %16 = load i32, ptr %15, align 8, !tbaa !17
  %17 = sext i32 %16 to i64
  %18 = call noalias ptr @calloc(i64 noundef %17, i64 noundef 4) #9
  store ptr %18, ptr %4, align 8, !tbaa !26
  store i32 0, ptr %5, align 4, !tbaa !8
  br label %19

19:                                               ; preds = %62, %1
  %20 = load i32, ptr %5, align 4, !tbaa !8
  %21 = load ptr, ptr %2, align 8, !tbaa !3
  %22 = getelementptr inbounds nuw %struct.Llb_Mtr_t_, ptr %21, i32 0, i32 2
  %23 = load i32, ptr %22, align 8, !tbaa !17
  %24 = icmp slt i32 %20, %23
  br i1 %24, label %25, label %65

25:                                               ; preds = %19
  %26 = load i32, ptr %5, align 4, !tbaa !8
  %27 = load ptr, ptr %3, align 8, !tbaa !26
  %28 = load i32, ptr %5, align 4, !tbaa !8
  %29 = sext i32 %28 to i64
  %30 = getelementptr inbounds i32, ptr %27, i64 %29
  store i32 %26, ptr %30, align 4, !tbaa !8
  %31 = load ptr, ptr %2, align 8, !tbaa !3
  %32 = getelementptr inbounds nuw %struct.Llb_Mtr_t_, ptr %31, i32 0, i32 3
  %33 = load i32, ptr %32, align 4, !tbaa !10
  %34 = sub nsw i32 %33, 1
  store i32 %34, ptr %6, align 4, !tbaa !8
  br label %35

35:                                               ; preds = %58, %25
  %36 = load i32, ptr %6, align 4, !tbaa !8
  %37 = icmp sge i32 %36, 0
  br i1 %37, label %38, label %61

38:                                               ; preds = %35
  %39 = load ptr, ptr %2, align 8, !tbaa !3
  %40 = getelementptr inbounds nuw %struct.Llb_Mtr_t_, ptr %39, i32 0, i32 7
  %41 = load ptr, ptr %40, align 8, !tbaa !18
  %42 = load i32, ptr %6, align 4, !tbaa !8
  %43 = sext i32 %42 to i64
  %44 = getelementptr inbounds ptr, ptr %41, i64 %43
  %45 = load ptr, ptr %44, align 8, !tbaa !19
  %46 = load i32, ptr %5, align 4, !tbaa !8
  %47 = sext i32 %46 to i64
  %48 = getelementptr inbounds i8, ptr %45, i64 %47
  %49 = load i8, ptr %48, align 1, !tbaa !20
  %50 = icmp ne i8 %49, 0
  br i1 %50, label %51, label %57

51:                                               ; preds = %38
  %52 = load i32, ptr %6, align 4, !tbaa !8
  %53 = load ptr, ptr %4, align 8, !tbaa !26
  %54 = load i32, ptr %5, align 4, !tbaa !8
  %55 = sext i32 %54 to i64
  %56 = getelementptr inbounds i32, ptr %53, i64 %55
  store i32 %52, ptr %56, align 4, !tbaa !8
  br label %61

57:                                               ; preds = %38
  br label %58

58:                                               ; preds = %57
  %59 = load i32, ptr %6, align 4, !tbaa !8
  %60 = add nsw i32 %59, -1
  store i32 %60, ptr %6, align 4, !tbaa !8
  br label %35, !llvm.loop !27

61:                                               ; preds = %51, %35
  br label %62

62:                                               ; preds = %61
  %63 = load i32, ptr %5, align 4, !tbaa !8
  %64 = add nsw i32 %63, 1
  store i32 %64, ptr %5, align 4, !tbaa !8
  br label %19, !llvm.loop !28

65:                                               ; preds = %19
  br label %66

66:                                               ; preds = %135, %65
  store i32 0, ptr %7, align 4, !tbaa !8
  store i32 0, ptr %5, align 4, !tbaa !8
  br label %67

67:                                               ; preds = %131, %66
  %68 = load i32, ptr %5, align 4, !tbaa !8
  %69 = load ptr, ptr %2, align 8, !tbaa !3
  %70 = getelementptr inbounds nuw %struct.Llb_Mtr_t_, ptr %69, i32 0, i32 2
  %71 = load i32, ptr %70, align 8, !tbaa !17
  %72 = sub nsw i32 %71, 1
  %73 = icmp slt i32 %68, %72
  br i1 %73, label %74, label %134

74:                                               ; preds = %67
  %75 = load ptr, ptr %4, align 8, !tbaa !26
  %76 = load i32, ptr %5, align 4, !tbaa !8
  %77 = sext i32 %76 to i64
  %78 = getelementptr inbounds i32, ptr %75, i64 %77
  %79 = load i32, ptr %78, align 4, !tbaa !8
  %80 = load ptr, ptr %4, align 8, !tbaa !26
  %81 = load i32, ptr %5, align 4, !tbaa !8
  %82 = add nsw i32 %81, 1
  %83 = sext i32 %82 to i64
  %84 = getelementptr inbounds i32, ptr %80, i64 %83
  %85 = load i32, ptr %84, align 4, !tbaa !8
  %86 = icmp sgt i32 %79, %85
  br i1 %86, label %87, label %130

87:                                               ; preds = %74
  %88 = load ptr, ptr %3, align 8, !tbaa !26
  %89 = load i32, ptr %5, align 4, !tbaa !8
  %90 = sext i32 %89 to i64
  %91 = getelementptr inbounds i32, ptr %88, i64 %90
  %92 = load i32, ptr %91, align 4, !tbaa !8
  store i32 %92, ptr %8, align 4, !tbaa !8
  %93 = load ptr, ptr %3, align 8, !tbaa !26
  %94 = load i32, ptr %5, align 4, !tbaa !8
  %95 = add nsw i32 %94, 1
  %96 = sext i32 %95 to i64
  %97 = getelementptr inbounds i32, ptr %93, i64 %96
  %98 = load i32, ptr %97, align 4, !tbaa !8
  %99 = load ptr, ptr %3, align 8, !tbaa !26
  %100 = load i32, ptr %5, align 4, !tbaa !8
  %101 = sext i32 %100 to i64
  %102 = getelementptr inbounds i32, ptr %99, i64 %101
  store i32 %98, ptr %102, align 4, !tbaa !8
  %103 = load i32, ptr %8, align 4, !tbaa !8
  %104 = load ptr, ptr %3, align 8, !tbaa !26
  %105 = load i32, ptr %5, align 4, !tbaa !8
  %106 = add nsw i32 %105, 1
  %107 = sext i32 %106 to i64
  %108 = getelementptr inbounds i32, ptr %104, i64 %107
  store i32 %103, ptr %108, align 4, !tbaa !8
  %109 = load ptr, ptr %4, align 8, !tbaa !26
  %110 = load i32, ptr %5, align 4, !tbaa !8
  %111 = sext i32 %110 to i64
  %112 = getelementptr inbounds i32, ptr %109, i64 %111
  %113 = load i32, ptr %112, align 4, !tbaa !8
  store i32 %113, ptr %8, align 4, !tbaa !8
  %114 = load ptr, ptr %4, align 8, !tbaa !26
  %115 = load i32, ptr %5, align 4, !tbaa !8
  %116 = add nsw i32 %115, 1
  %117 = sext i32 %116 to i64
  %118 = getelementptr inbounds i32, ptr %114, i64 %117
  %119 = load i32, ptr %118, align 4, !tbaa !8
  %120 = load ptr, ptr %4, align 8, !tbaa !26
  %121 = load i32, ptr %5, align 4, !tbaa !8
  %122 = sext i32 %121 to i64
  %123 = getelementptr inbounds i32, ptr %120, i64 %122
  store i32 %119, ptr %123, align 4, !tbaa !8
  %124 = load i32, ptr %8, align 4, !tbaa !8
  %125 = load ptr, ptr %4, align 8, !tbaa !26
  %126 = load i32, ptr %5, align 4, !tbaa !8
  %127 = add nsw i32 %126, 1
  %128 = sext i32 %127 to i64
  %129 = getelementptr inbounds i32, ptr %125, i64 %128
  store i32 %124, ptr %129, align 4, !tbaa !8
  store i32 1, ptr %7, align 4, !tbaa !8
  br label %130

130:                                              ; preds = %87, %74
  br label %131

131:                                              ; preds = %130
  %132 = load i32, ptr %5, align 4, !tbaa !8
  %133 = add nsw i32 %132, 1
  store i32 %133, ptr %5, align 4, !tbaa !8
  br label %67, !llvm.loop !29

134:                                              ; preds = %67
  br label %135

135:                                              ; preds = %134
  %136 = load i32, ptr %7, align 4, !tbaa !8
  %137 = icmp ne i32 %136, 0
  br i1 %137, label %66, label %138, !llvm.loop !30

138:                                              ; preds = %135
  %139 = load ptr, ptr %4, align 8, !tbaa !26
  %140 = icmp ne ptr %139, null
  br i1 %140, label %141, label %143

141:                                              ; preds = %138
  %142 = load ptr, ptr %4, align 8, !tbaa !26
  call void @free(ptr noundef %142) #8
  store ptr null, ptr %4, align 8, !tbaa !26
  br label %144

143:                                              ; preds = %138
  br label %144

144:                                              ; preds = %143, %141
  %145 = load ptr, ptr %3, align 8, !tbaa !26
  call void @llvm.lifetime.end.p0(i64 4, ptr %8) #8
  call void @llvm.lifetime.end.p0(i64 4, ptr %7) #8
  call void @llvm.lifetime.end.p0(i64 4, ptr %6) #8
  call void @llvm.lifetime.end.p0(i64 4, ptr %5) #8
  call void @llvm.lifetime.end.p0(i64 8, ptr %4) #8
  call void @llvm.lifetime.end.p0(i64 8, ptr %3) #8
  ret ptr %145
}