; Function Attrs: nounwind memory(readwrite, argmem: read) uwtable
define noalias noundef ptr @Llb_MtrFindVarOrder(ptr noundef readonly captures(none) %0) local_unnamed_addr #2 {
  %2 = getelementptr inbounds nuw i8, ptr %0, i64 8
  %3 = load i32, ptr %2, align 8, !tbaa !3
  %4 = sext i32 %3 to i64
  %5 = tail call noalias ptr @calloc(i64 noundef %4, i64 noundef 4) #18
  %6 = tail call noalias ptr @calloc(i64 noundef %4, i64 noundef 4) #18
  %7 = icmp sgt i32 %3, 0
  br i1 %7, label %.lr.ph, label %.split.us

.lr.ph:                                           ; preds = %1
  %8 = getelementptr inbounds nuw i8, ptr %0, i64 12
  %9 = load i32, ptr %8, align 4, !tbaa !14
  %10 = getelementptr inbounds nuw i8, ptr %0, i64 40
  %11 = zext i32 %9 to i64
  %wide.trip.count = zext nneg i32 %3 to i64
  br label %26

.preheader:                                       ; preds = %.loopexit
  %.not = icmp eq i32 %3, 1
  br i1 %.not, label %.split.us, label %.lr.ph55.us.preheader

.lr.ph55.us.preheader:                            ; preds = %.preheader
  %12 = add nsw i32 %3, -1
  %wide.trip.count64 = zext i32 %12 to i64
  br label %.lr.ph55.us

.lr.ph55.us:                                      ; preds = %.lr.ph55.us.preheader, %._crit_edge.us
  %.pre = load i32, ptr %6, align 4, !tbaa !15
  br label %13

13:                                               ; preds = %.lr.ph55.us, %24
  %14 = phi i32 [ %.pre, %.lr.ph55.us ], [ %25, %24 ]
  %indvars.iv61 = phi i64 [ 0, %.lr.ph55.us ], [ %indvars.iv.next62, %24 ]
  %.054.us = phi i32 [ 0, %.lr.ph55.us ], [ %.1.us, %24 ]
  %indvars.iv.next62 = add nuw nsw i64 %indvars.iv61, 1
  %15 = getelementptr inbounds nuw i32, ptr %6, i64 %indvars.iv.next62
  %16 = load i32, ptr %15, align 4, !tbaa !15
  %17 = icmp sgt i32 %14, %16
  br i1 %17, label %18, label %24

18:                                               ; preds = %13
  %19 = getelementptr inbounds nuw i32, ptr %6, i64 %indvars.iv61
  %20 = getelementptr inbounds nuw i32, ptr %5, i64 %indvars.iv61
  %21 = load i32, ptr %20, align 4, !tbaa !15
  %22 = getelementptr inbounds nuw i32, ptr %5, i64 %indvars.iv.next62
  %23 = load i32, ptr %22, align 4, !tbaa !15
  store i32 %23, ptr %20, align 4, !tbaa !15
  store i32 %21, ptr %22, align 4, !tbaa !15
  store i32 %16, ptr %19, align 4, !tbaa !15
  store i32 %14, ptr %15, align 4, !tbaa !15
  br label %24

24:                                               ; preds = %18, %13
  %25 = phi i32 [ %14, %18 ], [ %16, %13 ]
  %.1.us = phi i32 [ 1, %18 ], [ %.054.us, %13 ]
  %exitcond65.not = icmp eq i64 %indvars.iv.next62, %wide.trip.count64
  br i1 %exitcond65.not, label %._crit_edge.us, label %13, !llvm.loop !16

._crit_edge.us:                                   ; preds = %24
  %.not.us = icmp eq i32 %.1.us, 0
  br i1 %.not.us, label %.split.us.thread, label %.lr.ph55.us, !llvm.loop !18

26:                                               ; preds = %.lr.ph, %.loopexit
  %indvars.iv58 = phi i64 [ 0, %.lr.ph ], [ %indvars.iv.next59, %.loopexit ]
  %27 = getelementptr inbounds nuw i32, ptr %5, i64 %indvars.iv58
  %28 = trunc nuw nsw i64 %indvars.iv58 to i32
  store i32 %28, ptr %27, align 4, !tbaa !15
  br label %29

29:                                               ; preds = %32, %26
  %indvars.iv = phi i64 [ %33, %32 ], [ %11, %26 ]
  %30 = trunc nuw i64 %indvars.iv to i32
  %31 = icmp sgt i32 %30, 0
  br i1 %31, label %32, label %.loopexit

32:                                               ; preds = %29
  %33 = add nsw i64 %indvars.iv, -1
  %34 = load ptr, ptr %10, align 8, !tbaa !19
  %35 = getelementptr inbounds nuw ptr, ptr %34, i64 %33
  %36 = load ptr, ptr %35, align 8, !tbaa !20
  %37 = getelementptr inbounds nuw i8, ptr %36, i64 %indvars.iv58
  %38 = load i8, ptr %37, align 1, !tbaa !21
  %.not50 = icmp eq i8 %38, 0
  br i1 %.not50, label %29, label %39, !llvm.loop !22

39:                                               ; preds = %32
  %40 = trunc i64 %33 to i32
  %41 = getelementptr inbounds nuw i32, ptr %6, i64 %indvars.iv58
  store i32 %40, ptr %41, align 4, !tbaa !15
  br label %.loopexit

.loopexit:                                        ; preds = %29, %39
  %indvars.iv.next59 = add nuw nsw i64 %indvars.iv58, 1
  %exitcond.not = icmp eq i64 %indvars.iv.next59, %wide.trip.count
  br i1 %exitcond.not, label %.preheader, label %26, !llvm.loop !23

.split.us:                                        ; preds = %1, %.preheader
  %.not49 = icmp eq ptr %6, null
  br i1 %.not49, label %42, label %.split.us.thread

.split.us.thread:                                 ; preds = %._crit_edge.us, %.split.us
  tail call void @free(ptr noundef nonnull %6) #19
  br label %42

42:                                               ; preds = %.split.us, %.split.us.thread
  ret ptr %5
}